target datalayout = "e-m:e-p270:32:32-p271:32:32-p272:64:64-i64:64-i128:128-f80:128-n8:16:32:64-S128"
target triple = "x86_64-pc-linux-gnu"

@proto_register_bzr.ett = internal global [3 x ptr] [ptr @ett_bzr, ptr @ett_prefixed_bencode, ptr @ett_prefixed_bytes], align 16
@.str.19 = private unnamed_addr constant [22 x i8] c"Bazaar Smart Protocol\00", align 1
@.str.20 = private unnamed_addr constant [7 x i8] c"Bazaar\00", align 1
@.str.21 = private unnamed_addr constant [4 x i8] c"bzr\00", align 1
@proto_bzr = internal global i32 0, align 4
@bzr_handle = internal global ptr null, align 8
@.str.22 = private unnamed_addr constant [10 x i8] c"desegment\00", align 1
@.str.23 = private unnamed_addr constant [58 x i8] c"Reassemble Bazaar messages spanning multiple TCP segments\00", align 1
@.str.24 = private unnamed_addr constant [207 x i8] c"Whether the Bazaar dissector should reassemble messages spanning multiple TCP segments. To use this option, you must also enable \22Allow subdissectors to reassemble TCP streams\22 in the TCP protocol settings.\00", align 1
@bzr_desegment = internal global i8 1, align 1

; Function Attrs: null_pointer_is_valid sspstrong uwtable
define hidden void @proto_register_bzr() #0 {
  %1 = alloca ptr, align 8
  call void @llvm.lifetime.start.p0(i64 8, ptr %1) #3
  %2 = call i32 @proto_register_protocol(ptr noundef @.str.19, ptr noundef @.str.20, ptr noundef @.str.21)
  store i32 %2, ptr @proto_bzr, align 4
  %3 = load i32, ptr @proto_bzr, align 4
  %4 = call ptr @register_dissector(ptr noundef @.str.21, ptr noundef @dissect_bzr, i32 noundef %3)
  store ptr %4, ptr @bzr_handle, align 8
  %5 = load i32, ptr @proto_bzr, align 4
  call void @proto_register_field_array(i32 noundef %5, ptr noundef @proto_register_bzr.hf, i32 noundef 8)
  call void @proto_register_subtree_array(ptr noundef @proto_register_bzr.ett, i32 noundef 3)
  %6 = load i32, ptr @proto_bzr, align 4
  %7 = call ptr @prefs_register_protocol(i32 noundef %6, ptr noundef null)
  store ptr %7, ptr %1, align 8
  %8 = load ptr, ptr %1, align 8
  call void @prefs_register_bool_preference(ptr noundef %8, ptr noundef @.str.22, ptr noundef @.str.23, ptr noundef @.str.24, ptr noundef @bzr_desegment)
  call void @llvm.lifetime.end.p0(i64 8, ptr %1) #3
  ret void
}