; Function Attrs: null_pointer_is_valid sspstrong uwtable
define hidden void @proto_register_bzr() local_unnamed_addr #0 {
  %1 = tail call i32 @proto_register_protocol(ptr noundef nonnull @.str.19, ptr noundef nonnull @.str.20, ptr noundef nonnull @.str.21)
  store i32 %1, ptr @proto_bzr, align 4
  %2 = tail call ptr @register_dissector(ptr noundef nonnull @.str.21, ptr noundef nonnull @dissect_bzr, i32 noundef %1)
  store ptr %2, ptr @bzr_handle, align 8
  %3 = load i32, ptr @proto_bzr, align 4
  tail call void @proto_register_field_array(i32 noundef %3, ptr noundef nonnull @proto_register_bzr.hf, i32 noundef 8)
  tail call void @proto_register_subtree_array(ptr noundef nonnull @proto_register_bzr.ett, i32 noundef 3)
  %4 = load i32, ptr @proto_bzr, align 4
  %5 = tail call ptr @prefs_register_protocol(i32 noundef %4, ptr noundef null)
  tail call void @prefs_register_bool_preference(ptr noundef %5, ptr noundef nonnull @.str.22, ptr noundef nonnull @.str.23, ptr noundef nonnull @.str.24, ptr noundef nonnull @bzr_desegment)
  ret void
}